; ModuleID = 'source-C-CXX/30/1284.c'
source_filename = "source-C-CXX/30/1284.c"
target datalayout = "e-m:e-p270:32:32-p271:32:32-p272:64:64-i64:64-f80:128-n8:16:32:64-S128"
target triple = "x86_64-pc-linux-gnu"

%struct.student = type { [50 x i8], %struct.student*, %struct.student* }

@.str = private unnamed_addr constant [4 x i8] c"end\00", align 1

; Function Attrs: nounwind sspstrong uwtable
define dso_local void @main() local_unnamed_addr #0 {
  %1 = tail call noalias align 16 dereferenceable_or_null(100) i8* @malloc(i64 100) #6
  %2 = bitcast i8* %1 to %struct.student*
  %3 = getelementptr inbounds %struct.student, %struct.student* %2, i64 0, i32 0, i64 0
  %4 = tail call i32 (i8*, ...) bitcast (i32 (...)* @gets to i32 (i8*, ...)*)(i8* %3) #6
  %5 = getelementptr inbounds %struct.student, %struct.student* %2, i64 0, i32 1
  %6 = bitcast %struct.student** %5 to i8*
  call void @llvm.memset.p0i8.i64(i8* noundef nonnull align 8 dereferenceable(16) %6, i8 0, i64 16, i1 false)
  %7 = tail call i32 @strcmp(i8* noundef nonnull dereferenceable(1) %3, i8* noundef nonnull dereferenceable(4) getelementptr inbounds ([4 x i8], [4 x i8]* @.str, i64 0, i64 0)) #7
  %8 = icmp eq i32 %7, 0
  br i1 %8, label %21, label %9

9:                                                ; preds = %0, %9
  %10 = phi %struct.student* [ %12, %9 ], [ %2, %0 ]
  %11 = tail call noalias align 16 dereferenceable_or_null(100) i8* @malloc(i64 100) #6
  %12 = bitcast i8* %11 to %struct.student*
  %13 = getelementptr inbounds %struct.student, %struct.student* %12, i64 0, i32 0, i64 0
  %14 = tail call i32 (i8*, ...) bitcast (i32 (...)* @gets to i32 (i8*, ...)*)(i8* %13) #6
  %15 = getelementptr inbounds %struct.student, %struct.student* %12, i64 0, i32 1
  store %struct.student* null, %struct.student** %15, align 8, !tbaa !5
  %16 = getelementptr inbounds %struct.student, %struct.student* %12, i64 0, i32 2
  store %struct.student* %10, %struct.student** %16, align 16, !tbaa !10
  %17 = getelementptr inbounds %struct.student, %struct.student* %10, i64 0, i32 1
  %18 = bitcast %struct.student** %17 to i8**
  store i8* %11, i8** %18, align 8, !tbaa !5
  %19 = tail call i32 @strcmp(i8* noundef nonnull dereferenceable(1) %13, i8* noundef nonnull dereferenceable(4) getelementptr inbounds ([4 x i8], [4 x i8]* @.str, i64 0, i64 0)) #7
  %20 = icmp eq i32 %19, 0
  br i1 %20, label %21, label %9, !llvm.loop !11

21:                                               ; preds = %9, %0
  %22 = phi %struct.student* [ %2, %0 ], [ %10, %9 ]
  %23 = getelementptr inbounds %struct.student, %struct.student* %22, i64 0, i32 1
  store %struct.student* null, %struct.student** %23, align 8, !tbaa !5
  br label %24

24:                                               ; preds = %24, %21
  %25 = phi %struct.student* [ %22, %21 ], [ %29, %24 ]
  %26 = getelementptr inbounds %struct.student, %struct.student* %25, i64 0, i32 0, i64 0
  %27 = tail call i32 @puts(i8* nonnull dereferenceable(1) %26)
  %28 = getelementptr inbounds %struct.student, %struct.student* %25, i64 0, i32 2
  %29 = load %struct.student*, %struct.student** %28, align 8, !tbaa !10
  %30 = icmp eq %struct.student* %29, null
  br i1 %30, label %31, label %24, !llvm.loop !13

31:                                               ; preds = %24
  ret void
}

; Function Attrs: inaccessiblememonly mustprogress nofree nounwind willreturn
declare noalias noundef align 16 i8* @malloc(i64 noundef) local_unnamed_addr #1

declare i32 @gets(...) local_unnamed_addr #2

; Function Attrs: argmemonly mustprogress nofree nounwind readonly willreturn
declare i32 @strcmp(i8* nocapture, i8* nocapture) local_unnamed_addr #3

; Function Attrs: nofree nounwind
declare noundef i32 @puts(i8* nocapture noundef readonly) local_unnamed_addr #4

; Function Attrs: argmemonly nofree nounwind willreturn writeonly
declare void @llvm.memset.p0i8.i64(i8* nocapture writeonly, i8, i64, i1 immarg) #5


!llvm.module.flags = !{!0, !1, !2, !3}
!llvm.ident = !{!4}

!0 = !{i32 1, !"wchar_size", i32 4}
!1 = !{i32 7, !"PIC Level", i32 2}
!2 = !{i32 7, !"PIE Level", i32 2}
!3 = !{i32 7, !"uwtable", i32 1}
!4 = !{!"clang version 13.0.0"}
!5 = !{!6, !9, i64 56}
!6 = !{!"student", !7, i64 0, !9, i64 56, !9, i64 64}
!7 = !{!"omnipotent char", !8, i64 0}
!8 = !{!"Simple C/C++ TBAA"}
!9 = !{!"any pointer", !7, i64 0}
!10 = !{!6, !9, i64 64}
!11 = distinct !{!11, !12}
!12 = !{!"llvm.loop.mustprogress"}
!13 = distinct !{!13, !12}
